target datalayout = "e-m:e-p270:32:32-p271:32:32-p272:64:64-i64:64-i128:128-f80:128-n8:16:32:64-S128"
target triple = "x86_64-pc-linux-gnu"

%struct.grpc_byte_buffer_reader = type { ptr, ptr, %"union.grpc_byte_buffer_reader::grpc_byte_buffer_reader_current" }
%"union.grpc_byte_buffer_reader::grpc_byte_buffer_reader_current" = type { i32 }
%struct.grpc_byte_buffer = type { ptr, i32, %"union.grpc_byte_buffer::grpc_byte_buffer_data" }
%"union.grpc_byte_buffer::grpc_byte_buffer_data" = type { %"struct.grpc_byte_buffer::grpc_byte_buffer_data::grpc_compressed_buffer" }
%"struct.grpc_byte_buffer::grpc_byte_buffer_data::grpc_compressed_buffer" = type { i32, %struct.grpc_slice_buffer }
%struct.grpc_slice_buffer = type { ptr, ptr, i64, i64, i64, [6 x %struct.grpc_slice] }
%struct.grpc_slice = type { ptr, %"union.grpc_slice::grpc_slice_data" }
%"union.grpc_slice::grpc_slice_data" = type { %"struct.grpc_slice::grpc_slice_data::grpc_slice_refcounted", [8 x i8] }
%"struct.grpc_slice::grpc_slice_data::grpc_slice_refcounted" = type { i64, ptr }

; Function Attrs: mustprogress nounwind uwtable
define i32 @grpc_byte_buffer_reader_peek(ptr noundef %0, ptr noundef %1) #4 {
  %3 = alloca i32, align 4
  %4 = alloca ptr, align 8
  %5 = alloca ptr, align 8
  %6 = alloca ptr, align 8
  %7 = alloca i32, align 4
  store ptr %0, ptr %4, align 8, !tbaa !3
  store ptr %1, ptr %5, align 8, !tbaa !17
  %8 = load ptr, ptr %4, align 8, !tbaa !3
  %9 = getelementptr inbounds nuw %struct.grpc_byte_buffer_reader, ptr %8, i32 0, i32 0
  %10 = load ptr, ptr %9, align 8, !tbaa !10
  %11 = getelementptr inbounds nuw %struct.grpc_byte_buffer, ptr %10, i32 0, i32 1
  %12 = load i32, ptr %11, align 8, !tbaa !12
  switch i32 %12, label %44 [
    i32 0, label %13
  ]

13:                                               ; preds = %2
  call void @llvm.lifetime.start.p0(i64 8, ptr %6) #3
  %14 = load ptr, ptr %4, align 8, !tbaa !3
  %15 = getelementptr inbounds nuw %struct.grpc_byte_buffer_reader, ptr %14, i32 0, i32 1
  %16 = load ptr, ptr %15, align 8, !tbaa !15
  %17 = getelementptr inbounds nuw %struct.grpc_byte_buffer, ptr %16, i32 0, i32 2
  %18 = getelementptr inbounds nuw %"struct.grpc_byte_buffer::grpc_byte_buffer_data::grpc_compressed_buffer", ptr %17, i32 0, i32 1
  store ptr %18, ptr %6, align 8, !tbaa !20
  %19 = load ptr, ptr %4, align 8, !tbaa !3
  %20 = getelementptr inbounds nuw %struct.grpc_byte_buffer_reader, ptr %19, i32 0, i32 2
  %21 = load i32, ptr %20, align 8, !tbaa !16
  %22 = zext i32 %21 to i64
  %23 = load ptr, ptr %6, align 8, !tbaa !20
  %24 = getelementptr inbounds nuw %struct.grpc_slice_buffer, ptr %23, i32 0, i32 2
  %25 = load i64, ptr %24, align 8, !tbaa !22
  %26 = icmp ult i64 %22, %25
  br i1 %26, label %27, label %41

27:                                               ; preds = %13
  %28 = load ptr, ptr %6, align 8, !tbaa !20
  %29 = getelementptr inbounds nuw %struct.grpc_slice_buffer, ptr %28, i32 0, i32 1
  %30 = load ptr, ptr %29, align 8, !tbaa !26
  %31 = load ptr, ptr %4, align 8, !tbaa !3
  %32 = getelementptr inbounds nuw %struct.grpc_byte_buffer_reader, ptr %31, i32 0, i32 2
  %33 = load i32, ptr %32, align 8, !tbaa !16
  %34 = zext i32 %33 to i64
  %35 = getelementptr inbounds nuw %struct.grpc_slice, ptr %30, i64 %34
  %36 = load ptr, ptr %5, align 8, !tbaa !17
  store ptr %35, ptr %36, align 8, !tbaa !27
  %37 = load ptr, ptr %4, align 8, !tbaa !3
  %38 = getelementptr inbounds nuw %struct.grpc_byte_buffer_reader, ptr %37, i32 0, i32 2
  %39 = load i32, ptr %38, align 8, !tbaa !16
  %40 = add i32 %39, 1
  store i32 %40, ptr %38, align 8, !tbaa !16
  store i32 1, ptr %3, align 4
  store i32 1, ptr %7, align 4
  br label %42

41:                                               ; preds = %13
  store i32 2, ptr %7, align 4
  br label %42

42:                                               ; preds = %41, %27
  call void @llvm.lifetime.end.p0(i64 8, ptr %6) #3
  %43 = load i32, ptr %7, align 4
  switch i32 %43, label %47 [
    i32 1, label %45
    i32 2, label %44
  ]

44:                                               ; preds = %2, %42
  store i32 0, ptr %3, align 4
  br label %45

45:                                               ; preds = %44, %42
  %46 = load i32, ptr %3, align 4
  ret i32 %46

47:                                               ; preds = %42
  unreachable
}