; Function Attrs: mustprogress nofree norecurse nosync nounwind willreturn memory(read, argmem: readwrite, inaccessiblemem: none) uwtable
define range(i32 0, 2) i32 @grpc_byte_buffer_reader_peek(ptr noundef captures(none) %0, ptr noundef writeonly captures(none) %1) local_unnamed_addr #5 {
  %3 = load ptr, ptr %0, align 8, !tbaa !3
  %4 = getelementptr inbounds nuw i8, ptr %3, i64 8
  %5 = load i32, ptr %4, align 8, !tbaa !9
  %cond = icmp eq i32 %5, 0
  br i1 %cond, label %6, label %20

6:                                                ; preds = %2
  %7 = getelementptr inbounds nuw i8, ptr %0, i64 8
  %8 = load ptr, ptr %7, align 8, !tbaa !12
  %9 = getelementptr inbounds nuw i8, ptr %0, i64 16
  %10 = load i32, ptr %9, align 8, !tbaa !13
  %11 = zext i32 %10 to i64
  %12 = getelementptr inbounds nuw i8, ptr %8, i64 40
  %13 = load i64, ptr %12, align 8, !tbaa !14
  %14 = icmp ugt i64 %13, %11
  br i1 %14, label %.thread, label %20

.thread:                                          ; preds = %6
  %15 = getelementptr inbounds nuw i8, ptr %8, i64 32
  %16 = load ptr, ptr %15, align 8, !tbaa !18
  %17 = getelementptr inbounds nuw %struct.grpc_slice, ptr %16, i64 %11
  store ptr %17, ptr %1, align 8, !tbaa !19
  %18 = load i32, ptr %9, align 8, !tbaa !13
  %19 = add i32 %18, 1
  store i32 %19, ptr %9, align 8, !tbaa !13
  br label %20

20:                                               ; preds = %6, %2, %.thread
  %.1 = phi i32 [ 1, %.thread ], [ 0, %2 ], [ 0, %6 ]
  ret i32 %.1
}